; Function Attrs: mustprogress noreturn uwtable
define internal void @_ZZN8facebook3jsi7Runtime15instrumentationEvEN17NoInstrumentation20createSnapshotToFileERKNSt7__cxx1112basic_stringIcSt11char_traitsIcESaIcEEE(ptr nocapture nonnull readnone align 8 %this, ptr nocapture nonnull readnone align 8 %0) unnamed_addr #4 align 2 personality ptr @__gxx_personality_v0 {
entry:
  %agg.tmp.i = alloca %"class.std::__cxx11::basic_string", align 8
  %agg.tmp = alloca %"class.std::__cxx11::basic_string", align 8
  %ref.tmp = alloca %"class.std::allocator", align 1
  %exception = tail call ptr @__cxa_allocate_exception(i64 40) #23
  call void @_ZNSaIcEC1Ev(ptr noundef nonnull align 1 dereferenceable(1) %ref.tmp) #23
  invoke void @_ZNSt7__cxx1112basic_stringIcSt11char_traitsIcESaIcEEC1EPKcRKS3_(ptr noundef nonnull align 8 dereferenceable(32) %agg.tmp, ptr noundef nonnull @.str.47, ptr noundef nonnull align 1 dereferenceable(1) %ref.tmp)
          to label %invoke.cont3 unwind label %cleanup.action

invoke.cont3:                                     ; preds = %entry
  call void @llvm.lifetime.start.p0(i64 32, ptr nonnull %agg.tmp.i)
  call void @_ZNSt7__cxx1112basic_stringIcSt11char_traitsIcESaIcEEC1EOS4_(ptr noundef nonnull align 8 dereferenceable(32) %agg.tmp.i, ptr noundef nonnull align 8 dereferenceable(32) %agg.tmp) #23
  store ptr getelementptr inbounds ({ [5 x ptr] }, ptr @_ZTVN8facebook3jsi12JSIExceptionE, i64 0, i32 0, i64 2), ptr %exception, align 8
  %what_.i.i = getelementptr inbounds i8, ptr %exception, i64 8
  call void @_ZNSt7__cxx1112basic_stringIcSt11char_traitsIcESaIcEEC1EOS4_(ptr noundef nonnull align 8 dereferenceable(32) %what_.i.i, ptr noundef nonnull align 8 dereferenceable(32) %agg.tmp.i) #23
  call void @_ZNSt7__cxx1112basic_stringIcSt11char_traitsIcESaIcEED1Ev(ptr noundef nonnull align 8 dereferenceable(32) %agg.tmp.i) #23
  store ptr getelementptr inbounds ({ [5 x ptr] }, ptr @_ZTVN8facebook3jsi18JSINativeExceptionE, i64 0, i32 0, i64 2), ptr %exception, align 8
  call void @llvm.lifetime.end.p0(i64 32, ptr nonnull %agg.tmp.i)
  invoke void @__cxa_throw(ptr nonnull %exception, ptr nonnull @_ZTIN8facebook3jsi18JSINativeExceptionE, ptr nonnull @_ZN8facebook3jsi18JSINativeExceptionD1Ev) #24
          to label %unreachable unwind label %ehcleanup

ehcleanup:                                        ; preds = %invoke.cont3
  %1 = landingpad { ptr, i32 }
          cleanup
  call void @_ZNSt7__cxx1112basic_stringIcSt11char_traitsIcESaIcEED1Ev(ptr noundef nonnull align 8 dereferenceable(32) %agg.tmp) #23
  call void @_ZNSaIcED1Ev(ptr noundef nonnull align 1 dereferenceable(1) %ref.tmp) #23
  br label %eh.resume

cleanup.action:                                   ; preds = %entry
  %2 = landingpad { ptr, i32 }
          cleanup
  call void @_ZNSaIcED1Ev(ptr noundef nonnull align 1 dereferenceable(1) %ref.tmp) #23
  call void @__cxa_free_exception(ptr %exception) #23
  br label %eh.resume

eh.resume:                                        ; preds = %ehcleanup, %cleanup.action
  %.pn4 = phi { ptr, i32 } [ %1, %ehcleanup ], [ %2, %cleanup.action ]
  resume { ptr, i32 } %.pn4

unreachable:                                      ; preds = %invoke.cont3
  unreachable
}